target datalayout = "e-m:e-p270:32:32-p271:32:32-p272:64:64-i64:64-i128:128-f80:128-n8:16:32:64-S128"
target triple = "x86_64-pc-linux-gnu"

%struct.Aig_Obj_t_ = type { %union.anon, ptr, ptr, i64, i32, i32, %union.anon.0 }
%union.anon = type { ptr }
%union.anon.0 = type { ptr }
%struct.Aig_Man_t_ = type { ptr, ptr, ptr, ptr, ptr, ptr, ptr, %struct.Aig_Obj_t_, i32, i32, i32, i32, i32, i32, [7 x i32], i32, ptr, i32, ptr, i32, ptr, i32, i32, i32, ptr, i32, i32, i32, i32, i32, ptr, ptr, i32, ptr, ptr, i32, ptr, ptr, i32, i32, i32, ptr, ptr, ptr, ptr, ptr, ptr, ptr, ptr, ptr, ptr, ptr, ptr, ptr, ptr, i32, ptr, ptr, ptr, ptr, i32, i64, i64, i64, ptr, ptr }
%struct.Vec_Ptr_t_ = type { i32, i32, ptr }

; Function Attrs: inlinehint nounwind uwtable
define internal i32 @Aig_ObjIsNode(ptr noundef %0) #2 {
  %2 = alloca ptr, align 8
  store ptr %0, ptr %2, align 8, !tbaa !8
  %3 = load ptr, ptr %2, align 8, !tbaa !8
  %4 = getelementptr inbounds nuw %struct.Aig_Obj_t_, ptr %3, i32 0, i32 3
  %5 = load i64, ptr %4, align 8
  %6 = and i64 %5, 7
  %7 = trunc i64 %6 to i32
  %8 = icmp eq i32 %7, 5
  br i1 %8, label %16, label %9

9:                                                ; preds = %1
  %10 = load ptr, ptr %2, align 8, !tbaa !8
  %11 = getelementptr inbounds nuw %struct.Aig_Obj_t_, ptr %10, i32 0, i32 3
  %12 = load i64, ptr %11, align 8
  %13 = and i64 %12, 7
  %14 = trunc i64 %13 to i32
  %15 = icmp eq i32 %14, 6
  br label %16

16:                                               ; preds = %9, %1
  %17 = phi i1 [ true, %1 ], [ %15, %9 ]
  %18 = zext i1 %17 to i32
  ret i32 %18
}

; Function Attrs: inlinehint nounwind uwtable
define internal i32 @Vec_PtrSize(ptr noundef %0) #2 {
  %2 = alloca ptr, align 8
  store ptr %0, ptr %2, align 8, !tbaa !40
  %3 = load ptr, ptr %2, align 8, !tbaa !40
  %4 = getelementptr inbounds nuw %struct.Vec_Ptr_t_, ptr %3, i32 0, i32 1
  %5 = load i32, ptr %4, align 4, !tbaa !41
  ret i32 %5
}

; Function Attrs: inlinehint nounwind uwtable
define internal ptr @Vec_PtrEntry(ptr noundef %0, i32 noundef %1) #2 {
  %3 = alloca ptr, align 8
  %4 = alloca i32, align 4
  store ptr %0, ptr %3, align 8, !tbaa !40
  store i32 %1, ptr %4, align 4, !tbaa !14
  %5 = load ptr, ptr %3, align 8, !tbaa !40
  %6 = getelementptr inbounds nuw %struct.Vec_Ptr_t_, ptr %5, i32 0, i32 2
  %7 = load ptr, ptr %6, align 8, !tbaa !43
  %8 = load i32, ptr %4, align 4, !tbaa !14
  %9 = sext i32 %8 to i64
  %10 = getelementptr inbounds ptr, ptr %7, i64 %9
  %11 = load ptr, ptr %10, align 8, !tbaa !44
  ret ptr %11
}

; Function Attrs: inlinehint nounwind uwtable
define internal i32 @Saig_ManPoNum(ptr noundef %0) #2 {
  %2 = alloca ptr, align 8
  store ptr %0, ptr %2, align 8, !tbaa !3
  %3 = load ptr, ptr %2, align 8, !tbaa !3
  %4 = getelementptr inbounds nuw %struct.Aig_Man_t_, ptr %3, i32 0, i32 10
  %5 = load i32, ptr %4, align 8, !tbaa !58
  ret i32 %5
}

; Function Attrs: inlinehint nounwind uwtable
define internal i32 @Saig_ManRegNum(ptr noundef %0) #2 {
  %2 = alloca ptr, align 8
  store ptr %0, ptr %2, align 8, !tbaa !3
  %3 = load ptr, ptr %2, align 8, !tbaa !3
  %4 = getelementptr inbounds nuw %struct.Aig_Man_t_, ptr %3, i32 0, i32 8
  %5 = load i32, ptr %4, align 8, !tbaa !57
  ret i32 %5
}

; Function Attrs: inlinehint nounwind uwtable
define internal ptr @Vec_PtrAlloc(i32 noundef %0) #2 {
  %2 = alloca i32, align 4
  %3 = alloca ptr, align 8
  store i32 %0, ptr %2, align 4, !tbaa !14
  call void @llvm.lifetime.start.p0(i64 8, ptr %3) #9
  %4 = call noalias ptr @malloc(i64 noundef 16) #10
  store ptr %4, ptr %3, align 8, !tbaa !40
  %5 = load i32, ptr %2, align 4, !tbaa !14
  %6 = icmp sgt i32 %5, 0
  br i1 %6, label %7, label %11

7:                                                ; preds = %1
  %8 = load i32, ptr %2, align 4, !tbaa !14
  %9 = icmp slt i32 %8, 8
  br i1 %9, label %10, label %11

10:                                               ; preds = %7
  store i32 8, ptr %2, align 4, !tbaa !14
  br label %11

11:                                               ; preds = %10, %7, %1
  %12 = load ptr, ptr %3, align 8, !tbaa !40
  %13 = getelementptr inbounds nuw %struct.Vec_Ptr_t_, ptr %12, i32 0, i32 1
  store i32 0, ptr %13, align 4, !tbaa !41
  %14 = load i32, ptr %2, align 4, !tbaa !14
  %15 = load ptr, ptr %3, align 8, !tbaa !40
  %16 = getelementptr inbounds nuw %struct.Vec_Ptr_t_, ptr %15, i32 0, i32 0
  store i32 %14, ptr %16, align 8, !tbaa !53
  %17 = load ptr, ptr %3, align 8, !tbaa !40
  %18 = getelementptr inbounds nuw %struct.Vec_Ptr_t_, ptr %17, i32 0, i32 0
  %19 = load i32, ptr %18, align 8, !tbaa !53
  %20 = icmp ne i32 %19, 0
  br i1 %20, label %21, label %28

21:                                               ; preds = %11
  %22 = load ptr, ptr %3, align 8, !tbaa !40
  %23 = getelementptr inbounds nuw %struct.Vec_Ptr_t_, ptr %22, i32 0, i32 0
  %24 = load i32, ptr %23, align 8, !tbaa !53
  %25 = sext i32 %24 to i64
  %26 = mul i64 8, %25
  %27 = call noalias ptr @malloc(i64 noundef %26) #10
  br label %29

28:                                               ; preds = %11
  br label %29

29:                                               ; preds = %28, %21
  %30 = phi ptr [ %27, %21 ], [ null, %28 ]
  %31 = load ptr, ptr %3, align 8, !tbaa !40
  %32 = getelementptr inbounds nuw %struct.Vec_Ptr_t_, ptr %31, i32 0, i32 2
  store ptr %30, ptr %32, align 8, !tbaa !43
  %33 = load ptr, ptr %3, align 8, !tbaa !40
  call void @llvm.lifetime.end.p0(i64 8, ptr %3) #9
  ret ptr %33
}

; Function Attrs: nounwind uwtable
define ptr @Llb_Nonlin4SweepPartitions(ptr noundef %0, ptr noundef %1, ptr noundef %2, i32 noundef %3) #0 {
  %5 = alloca ptr, align 8
  %6 = alloca ptr, align 8
  %7 = alloca ptr, align 8
  %8 = alloca i32, align 4
  %9 = alloca ptr, align 8
  %10 = alloca ptr, align 8
  %11 = alloca i32, align 4
  store ptr %0, ptr %5, align 8, !tbaa !45
  store ptr %1, ptr %6, align 8, !tbaa !3
  store ptr %2, ptr %7, align 8, !tbaa !10
  store i32 %3, ptr %8, align 4, !tbaa !14
  call void @llvm.lifetime.start.p0(i64 8, ptr %9) #9
  call void @llvm.lifetime.start.p0(i64 8, ptr %10) #9
  call void @llvm.lifetime.start.p0(i64 4, ptr %11) #9
  %12 = load ptr, ptr %6, align 8, !tbaa !3
  call void @Aig_ManCleanData(ptr noundef %12)
  %13 = call ptr @Vec_PtrAlloc(i32 noundef 100)
  store ptr %13, ptr %9, align 8, !tbaa !40
  %14 = load i32, ptr %8, align 4, !tbaa !14
  %15 = icmp ne i32 %14, 0
  br i1 %15, label %16, label %43

16:                                               ; preds = %4
  store i32 0, ptr %11, align 4, !tbaa !14
  br label %17

17:                                               ; preds = %39, %16
  %18 = load i32, ptr %11, align 4, !tbaa !14
  %19 = load ptr, ptr %6, align 8, !tbaa !3
  %20 = call i32 @Saig_ManRegNum(ptr noundef %19)
  %21 = icmp slt i32 %18, %20
  br i1 %21, label %22, label %31

22:                                               ; preds = %17
  %23 = load ptr, ptr %6, align 8, !tbaa !3
  %24 = getelementptr inbounds nuw %struct.Aig_Man_t_, ptr %23, i32 0, i32 3
  %25 = load ptr, ptr %24, align 8, !tbaa !32
  %26 = load i32, ptr %11, align 4, !tbaa !14
  %27 = load ptr, ptr %6, align 8, !tbaa !3
  %28 = call i32 @Saig_ManPoNum(ptr noundef %27)
  %29 = add nsw i32 %26, %28
  %30 = call ptr @Vec_PtrEntry(ptr noundef %25, i32 noundef %29)
  store ptr %30, ptr %10, align 8, !tbaa !8
  br label %31

31:                                               ; preds = %22, %17
  %32 = phi i1 [ false, %17 ], [ true, %22 ]
  br i1 %32, label %33, label %42

33:                                               ; preds = %31
  %34 = load ptr, ptr %5, align 8, !tbaa !45
  %35 = load ptr, ptr %10, align 8, !tbaa !8
  %36 = load ptr, ptr %7, align 8, !tbaa !10
  %37 = load ptr, ptr %9, align 8, !tbaa !40
  %38 = call ptr @Llb_Nonlin4SweepPartitions_rec(ptr noundef %34, ptr noundef %35, ptr noundef %36, ptr noundef %37)
  br label %39

39:                                               ; preds = %33
  %40 = load i32, ptr %11, align 4, !tbaa !14
  %41 = add nsw i32 %40, 1
  store i32 %41, ptr %11, align 4, !tbaa !14
  br label %17, !llvm.loop !54

42:                                               ; preds = %31
  br label %67

43:                                               ; preds = %4
  store i32 0, ptr %11, align 4, !tbaa !14
  br label %44

44:                                               ; preds = %63, %43
  %45 = load i32, ptr %11, align 4, !tbaa !14
  %46 = load ptr, ptr %6, align 8, !tbaa !3
  %47 = call i32 @Saig_ManPoNum(ptr noundef %46)
  %48 = icmp slt i32 %45, %47
  br i1 %48, label %49, label %55

49:                                               ; preds = %44
  %50 = load ptr, ptr %6, align 8, !tbaa !3
  %51 = getelementptr inbounds nuw %struct.Aig_Man_t_, ptr %50, i32 0, i32 3
  %52 = load ptr, ptr %51, align 8, !tbaa !32
  %53 = load i32, ptr %11, align 4, !tbaa !14
  %54 = call ptr @Vec_PtrEntry(ptr noundef %52, i32 noundef %53)
  store ptr %54, ptr %10, align 8, !tbaa !8
  br label %55

55:                                               ; preds = %49, %44
  %56 = phi i1 [ false, %44 ], [ true, %49 ]
  br i1 %56, label %57, label %66

57:                                               ; preds = %55
  %58 = load ptr, ptr %5, align 8, !tbaa !45
  %59 = load ptr, ptr %10, align 8, !tbaa !8
  %60 = load ptr, ptr %7, align 8, !tbaa !10
  %61 = load ptr, ptr %9, align 8, !tbaa !40
  %62 = call ptr @Llb_Nonlin4SweepPartitions_rec(ptr noundef %58, ptr noundef %59, ptr noundef %60, ptr noundef %61)
  br label %63

63:                                               ; preds = %57
  %64 = load i32, ptr %11, align 4, !tbaa !14
  %65 = add nsw i32 %64, 1
  store i32 %65, ptr %11, align 4, !tbaa !14
  br label %44, !llvm.loop !55

66:                                               ; preds = %55
  br label %67

67:                                               ; preds = %66, %42
  store i32 0, ptr %11, align 4, !tbaa !14
  br label %68

68:                                               ; preds = %103, %67
  %69 = load i32, ptr %11, align 4, !tbaa !14
  %70 = load ptr, ptr %6, align 8, !tbaa !3
  %71 = getelementptr inbounds nuw %struct.Aig_Man_t_, ptr %70, i32 0, i32 4
  %72 = load ptr, ptr %71, align 8, !tbaa !38
  %73 = call i32 @Vec_PtrSize(ptr noundef %72)
  %74 = icmp slt i32 %69, %73
  br i1 %74, label %75, label %81

75:                                               ; preds = %68
  %76 = load ptr, ptr %6, align 8, !tbaa !3
  %77 = getelementptr inbounds nuw %struct.Aig_Man_t_, ptr %76, i32 0, i32 4
  %78 = load ptr, ptr %77, align 8, !tbaa !38
  %79 = load i32, ptr %11, align 4, !tbaa !14
  %80 = call ptr @Vec_PtrEntry(ptr noundef %78, i32 noundef %79)
  store ptr %80, ptr %10, align 8, !tbaa !8
  br label %81

81:                                               ; preds = %75, %68
  %82 = phi i1 [ false, %68 ], [ true, %75 ]
  br i1 %82, label %83, label %106

83:                                               ; preds = %81
  %84 = load ptr, ptr %10, align 8, !tbaa !8
  %85 = icmp eq ptr %84, null
  br i1 %85, label %90, label %86

86:                                               ; preds = %83
  %87 = load ptr, ptr %10, align 8, !tbaa !8
  %88 = call i32 @Aig_ObjIsNode(ptr noundef %87)
  %89 = icmp ne i32 %88, 0
  br i1 %89, label %91, label %90

90:                                               ; preds = %86, %83
  br label %102

91:                                               ; preds = %86
  %92 = load ptr, ptr %10, align 8, !tbaa !8
  %93 = getelementptr inbounds nuw %struct.Aig_Obj_t_, ptr %92, i32 0, i32 6
  %94 = load ptr, ptr %93, align 8, !tbaa !47
  %95 = icmp ne ptr %94, null
  br i1 %95, label %96, label %101

96:                                               ; preds = %91
  %97 = load ptr, ptr %5, align 8, !tbaa !45
  %98 = load ptr, ptr %10, align 8, !tbaa !8
  %99 = getelementptr inbounds nuw %struct.Aig_Obj_t_, ptr %98, i32 0, i32 6
  %100 = load ptr, ptr %99, align 8, !tbaa !47
  call void @Cudd_RecursiveDeref(ptr noundef %97, ptr noundef %100)
  br label %101

101:                                              ; preds = %96, %91
  br label %102

102:                                              ; preds = %101, %90
  br label %103

103:                                              ; preds = %102
  %104 = load i32, ptr %11, align 4, !tbaa !14
  %105 = add nsw i32 %104, 1
  store i32 %105, ptr %11, align 4, !tbaa !14
  br label %68, !llvm.loop !56

106:                                              ; preds = %81
  %107 = load ptr, ptr %9, align 8, !tbaa !40
  call void @llvm.lifetime.end.p0(i64 4, ptr %11) #9
  call void @llvm.lifetime.end.p0(i64 8, ptr %10) #9
  call void @llvm.lifetime.end.p0(i64 8, ptr %9) #9
  ret ptr %107
}