; Function Attrs: nounwind uwtable
define noundef ptr @Llb_Nonlin4SweepPartitions(ptr noundef %0, ptr noundef %1, ptr noundef %2, i32 noundef %3) local_unnamed_addr #2 {
  tail call void @Aig_ManCleanData(ptr noundef %1) #13
  %5 = tail call noalias dereferenceable_or_null(16) ptr @malloc(i64 noundef 16) #14
  %6 = getelementptr inbounds nuw i8, ptr %5, i64 4
  store i32 0, ptr %6, align 4, !tbaa !29
  store i32 100, ptr %5, align 8, !tbaa !46
  %7 = tail call noalias dereferenceable_or_null(800) ptr @malloc(i64 noundef 800) #14
  %8 = getelementptr inbounds nuw i8, ptr %5, i64 8
  store ptr %7, ptr %8, align 8, !tbaa !36
  %.not = icmp eq i32 %3, 0
  br i1 %.not, label %.preheader, label %.preheader46

.preheader46:                                     ; preds = %4
  %9 = getelementptr i8, ptr %1, i64 104
  %.val4348 = load i32, ptr %9, align 8, !tbaa !47
  %10 = icmp sgt i32 %.val4348, 0
  br i1 %10, label %.lr.ph, label %.critedge

.lr.ph:                                           ; preds = %.preheader46
  %11 = getelementptr inbounds nuw i8, ptr %1, i64 24
  %12 = getelementptr i8, ptr %1, i64 112
  br label %16

.preheader:                                       ; preds = %4
  %13 = getelementptr i8, ptr %1, i64 112
  %.val4550 = load i32, ptr %13, align 8, !tbaa !48
  %14 = icmp sgt i32 %.val4550, 0
  br i1 %14, label %.lr.ph52, label %.critedge

.lr.ph52:                                         ; preds = %.preheader
  %15 = getelementptr inbounds nuw i8, ptr %1, i64 24
  br label %26

16:                                               ; preds = %.lr.ph, %16
  %.049 = phi i32 [ 0, %.lr.ph ], [ %24, %16 ]
  %17 = load ptr, ptr %11, align 8, !tbaa !34
  %.val44 = load i32, ptr %12, align 8, !tbaa !48
  %18 = add nsw i32 %.val44, %.049
  %19 = getelementptr i8, ptr %17, i64 8
  %.val41 = load ptr, ptr %19, align 8, !tbaa !36
  %20 = sext i32 %18 to i64
  %21 = getelementptr inbounds ptr, ptr %.val41, i64 %20
  %22 = load ptr, ptr %21, align 8, !tbaa !37
  %23 = tail call ptr @Llb_Nonlin4SweepPartitions_rec(ptr noundef %0, ptr noundef %22, ptr noundef %2, ptr noundef nonnull %5)
  %24 = add nuw nsw i32 %.049, 1
  %.val43 = load i32, ptr %9, align 8, !tbaa !47
  %25 = icmp slt i32 %24, %.val43
  br i1 %25, label %16, label %.critedge, !llvm.loop !49

26:                                               ; preds = %.lr.ph52, %26
  %indvars.iv = phi i64 [ 0, %.lr.ph52 ], [ %indvars.iv.next, %26 ]
  %27 = load ptr, ptr %15, align 8, !tbaa !34
  %28 = getelementptr i8, ptr %27, i64 8
  %.val40 = load ptr, ptr %28, align 8, !tbaa !36
  %29 = getelementptr inbounds nuw ptr, ptr %.val40, i64 %indvars.iv
  %30 = load ptr, ptr %29, align 8, !tbaa !37
  %31 = tail call ptr @Llb_Nonlin4SweepPartitions_rec(ptr noundef %0, ptr noundef %30, ptr noundef %2, ptr noundef nonnull %5)
  %indvars.iv.next = add nuw nsw i64 %indvars.iv, 1
  %.val45 = load i32, ptr %13, align 8, !tbaa !48
  %32 = sext i32 %.val45 to i64
  %33 = icmp slt i64 %indvars.iv.next, %32
  br i1 %33, label %26, label %.critedge, !llvm.loop !50

.critedge:                                        ; preds = %16, %26, %.preheader46, %.preheader
  %34 = getelementptr inbounds nuw i8, ptr %1, i64 32
  %35 = load ptr, ptr %34, align 8, !tbaa !28
  %36 = getelementptr i8, ptr %35, i64 4
  %.val53 = load i32, ptr %36, align 4, !tbaa !29
  %37 = icmp sgt i32 %.val53, 0
  br i1 %37, label %.lr.ph55, label %.critedge4

.lr.ph55:                                         ; preds = %.critedge, %52
  %38 = phi ptr [ %53, %52 ], [ %35, %.critedge ]
  %indvars.iv58 = phi i64 [ %indvars.iv.next59, %52 ], [ 0, %.critedge ]
  %39 = getelementptr i8, ptr %38, i64 8
  %.val39 = load ptr, ptr %39, align 8, !tbaa !36
  %40 = getelementptr inbounds nuw ptr, ptr %.val39, i64 %indvars.iv58
  %41 = load ptr, ptr %40, align 8, !tbaa !37
  %42 = icmp eq ptr %41, null
  br i1 %42, label %52, label %43

43:                                               ; preds = %.lr.ph55
  %44 = getelementptr i8, ptr %41, i64 24
  %.val42 = load i64, ptr %44, align 8
  %45 = trunc i64 %.val42 to i32
  %46 = and i32 %45, 7
  %47 = add nsw i32 %46, -7
  %narrow.i = icmp ult i32 %47, -2
  br i1 %narrow.i, label %52, label %48

48:                                               ; preds = %43
  %49 = getelementptr inbounds nuw i8, ptr %41, i64 40
  %50 = load ptr, ptr %49, align 8, !tbaa !41
  %.not38 = icmp eq ptr %50, null
  br i1 %.not38, label %52, label %51

51:                                               ; preds = %48
  tail call void @Cudd_RecursiveDeref(ptr noundef %0, ptr noundef nonnull %50) #13
  %.pre = load ptr, ptr %34, align 8, !tbaa !28
  br label %52

52:                                               ; preds = %43, %.lr.ph55, %51, %48
  %53 = phi ptr [ %38, %43 ], [ %38, %.lr.ph55 ], [ %.pre, %51 ], [ %38, %48 ]
  %indvars.iv.next59 = add nuw nsw i64 %indvars.iv58, 1
  %54 = getelementptr i8, ptr %53, i64 4
  %.val = load i32, ptr %54, align 4, !tbaa !29
  %55 = sext i32 %.val to i64
  %56 = icmp slt i64 %indvars.iv.next59, %55
  br i1 %56, label %.lr.ph55, label %.critedge4, !llvm.loop !51

.critedge4:                                       ; preds = %52, %.critedge
  ret ptr %5
}